; Function Attrs: mustprogress nofree norecurse nosync nounwind willreturn memory(argmem: read) uwtable
define zeroext range(i8 0, 2) i8 @l_Array_anyMUnsafe_any___at_Lean_Linter_UnusedVariables_collectReferences_go___spec__14___lambda__1(ptr noundef %0) local_unnamed_addr #4 {
  %2 = ptrtoint ptr %0 to i64
  %3 = and i64 %2, 1
  %.not.i = icmp eq i64 %3, 0
  br i1 %.not.i, label %7, label %4

4:                                                ; preds = %1
  %5 = lshr i64 %2, 1
  %6 = trunc i64 %5 to i32
  br label %lean_obj_tag.exit

7:                                                ; preds = %1
  %8 = getelementptr i8, ptr %0, i64 4
  %.val.i = load i32, ptr %8, align 4
  %9 = lshr i32 %.val.i, 24
  br label %lean_obj_tag.exit

lean_obj_tag.exit:                                ; preds = %4, %7
  %.0.i = phi i32 [ %6, %4 ], [ %9, %7 ]
  %10 = icmp eq i32 %.0.i, 0
  %. = zext i1 %10 to i8
  ret i8 %.
}